target datalayout = "e-m:e-p270:32:32-p271:32:32-p272:64:64-i64:64-i128:128-f80:128-n8:16:32:64-S128"
target triple = "x86_64-pc-linux-gnu"

%struct.Vec_Str_t_ = type { i32, i32, ptr }
%struct.Vec_Int_t_ = type { i32, i32, ptr }
%struct.Acb_Ntk_t_ = type { ptr, i32, i32, i32, i8, %struct.Vec_Int_t_, %struct.Vec_Int_t_, %struct.Vec_Int_t_, %struct.Vec_Int_t_, i32, i32, i32, i32, i32, %struct.Vec_Str_t_, %struct.Vec_Int_t_, %struct.Vec_Int_t_, %struct.Vec_Int_t_, %struct.Vec_Int_t_, %struct.Vec_Int_t_, %struct.Vec_Wrd_t_, %struct.Vec_Int_t_, %struct.Vec_Int_t_, %struct.Vec_Int_t_, %struct.Vec_Int_t_, %struct.Vec_Int_t_, %struct.Vec_Int_t_, %struct.Vec_Int_t_, %struct.Vec_Int_t_, %struct.Vec_Int_t_, %struct.Vec_Int_t_, %struct.Vec_Int_t_, %struct.Vec_Int_t_, %struct.Vec_Flt_t_, %struct.Vec_Wec_t_, %struct.Vec_Wec_t_, %struct.Vec_Str_t_, %struct.Vec_Int_t_, ptr, %struct.Vec_Int_t_, %struct.Vec_Int_t_, %struct.Vec_Int_t_, %struct.Vec_Int_t_ }
%struct.Vec_Wrd_t_ = type { i32, i32, ptr }
%struct.Vec_Flt_t_ = type { i32, i32, ptr }
%struct.Vec_Wec_t_ = type { i32, i32, ptr }

; Function Attrs: inlinehint nounwind uwtable
define internal i32 @Vec_IntEntry(ptr noundef %0, i32 noundef %1) #1 {
  %3 = alloca ptr, align 8
  %4 = alloca i32, align 4
  store ptr %0, ptr %3, align 8, !tbaa !9
  store i32 %1, ptr %4, align 4, !tbaa !7
  %5 = load ptr, ptr %3, align 8, !tbaa !9
  %6 = getelementptr inbounds nuw %struct.Vec_Int_t_, ptr %5, i32 0, i32 2
  %7 = load ptr, ptr %6, align 8, !tbaa !27
  %8 = load i32, ptr %4, align 4, !tbaa !7
  %9 = sext i32 %8 to i64
  %10 = getelementptr inbounds i32, ptr %7, i64 %9
  %11 = load i32, ptr %10, align 4, !tbaa !7
  ret i32 %11
}

; Function Attrs: inlinehint nounwind uwtable
define internal ptr @Vec_IntEntryP(ptr noundef %0, i32 noundef %1) #1 {
  %3 = alloca ptr, align 8
  %4 = alloca i32, align 4
  store ptr %0, ptr %3, align 8, !tbaa !9
  store i32 %1, ptr %4, align 4, !tbaa !7
  %5 = load ptr, ptr %3, align 8, !tbaa !9
  %6 = getelementptr inbounds nuw %struct.Vec_Int_t_, ptr %5, i32 0, i32 2
  %7 = load ptr, ptr %6, align 8, !tbaa !27
  %8 = load i32, ptr %4, align 4, !tbaa !7
  %9 = sext i32 %8 to i64
  %10 = getelementptr inbounds i32, ptr %7, i64 %9
  ret ptr %10
}

; Function Attrs: inlinehint nounwind uwtable
define internal i32 @Acb_ObjFanOffset(ptr noundef %0, i32 noundef %1) #1 {
  %3 = alloca ptr, align 8
  %4 = alloca i32, align 4
  store ptr %0, ptr %3, align 8, !tbaa !28
  store i32 %1, ptr %4, align 4, !tbaa !7
  %5 = load ptr, ptr %3, align 8, !tbaa !28
  %6 = getelementptr inbounds nuw %struct.Acb_Ntk_t_, ptr %5, i32 0, i32 15
  %7 = load i32, ptr %4, align 4, !tbaa !7
  %8 = call i32 @Vec_IntEntry(ptr noundef %6, i32 noundef %7)
  ret i32 %8
}

; Function Attrs: inlinehint nounwind uwtable
define internal ptr @Acb_ObjFanins(ptr noundef %0, i32 noundef %1) #1 {
  %3 = alloca ptr, align 8
  %4 = alloca i32, align 4
  store ptr %0, ptr %3, align 8, !tbaa !28
  store i32 %1, ptr %4, align 4, !tbaa !7
  %5 = load ptr, ptr %3, align 8, !tbaa !28
  %6 = getelementptr inbounds nuw %struct.Acb_Ntk_t_, ptr %5, i32 0, i32 16
  %7 = load ptr, ptr %3, align 8, !tbaa !28
  %8 = load i32, ptr %4, align 4, !tbaa !7
  %9 = call i32 @Acb_ObjFanOffset(ptr noundef %7, i32 noundef %8)
  %10 = call ptr @Vec_IntEntryP(ptr noundef %6, i32 noundef %9)
  ret ptr %10
}

; Function Attrs: inlinehint nounwind uwtable
define internal i64 @Vec_WrdEntry(ptr noundef %0, i32 noundef %1) #1 {
  %3 = alloca ptr, align 8
  %4 = alloca i32, align 4
  store ptr %0, ptr %3, align 8, !tbaa !227
  store i32 %1, ptr %4, align 4, !tbaa !7
  %5 = load ptr, ptr %3, align 8, !tbaa !227
  %6 = getelementptr inbounds nuw %struct.Vec_Wrd_t_, ptr %5, i32 0, i32 2
  %7 = load ptr, ptr %6, align 8, !tbaa !229
  %8 = load i32, ptr %4, align 4, !tbaa !7
  %9 = sext i32 %8 to i64
  %10 = getelementptr inbounds i64, ptr %7, i64 %9
  %11 = load i64, ptr %10, align 8, !tbaa !3
  ret i64 %11
}

; Function Attrs: inlinehint nounwind uwtable
define internal ptr @Vec_WecEntry(ptr noundef %0, i32 noundef %1) #1 {
  %3 = alloca ptr, align 8
  %4 = alloca i32, align 4
  store ptr %0, ptr %3, align 8, !tbaa !30
  store i32 %1, ptr %4, align 4, !tbaa !7
  %5 = load ptr, ptr %3, align 8, !tbaa !30
  %6 = getelementptr inbounds nuw %struct.Vec_Wec_t_, ptr %5, i32 0, i32 2
  %7 = load ptr, ptr %6, align 8, !tbaa !41
  %8 = load i32, ptr %4, align 4, !tbaa !7
  %9 = sext i32 %8 to i64
  %10 = getelementptr inbounds %struct.Vec_Int_t_, ptr %7, i64 %9
  ret ptr %10
}

; Function Attrs: inlinehint nounwind uwtable
define internal ptr @Vec_StrArray(ptr noundef %0) #1 {
  %2 = alloca ptr, align 8
  store ptr %0, ptr %2, align 8, !tbaa !12
  %3 = load ptr, ptr %2, align 8, !tbaa !12
  %4 = getelementptr inbounds nuw %struct.Vec_Str_t_, ptr %3, i32 0, i32 2
  %5 = load ptr, ptr %4, align 8, !tbaa !23
  ret ptr %5
}

; Function Attrs: inlinehint nounwind uwtable
define internal void @Vec_StrGrow(ptr noundef %0, i32 noundef %1) #1 {
  %3 = alloca ptr, align 8
  %4 = alloca i32, align 4
  store ptr %0, ptr %3, align 8, !tbaa !12
  store i32 %1, ptr %4, align 4, !tbaa !7
  %5 = load ptr, ptr %3, align 8, !tbaa !12
  %6 = getelementptr inbounds nuw %struct.Vec_Str_t_, ptr %5, i32 0, i32 0
  %7 = load i32, ptr %6, align 8, !tbaa !22
  %8 = load i32, ptr %4, align 4, !tbaa !7
  %9 = icmp sge i32 %7, %8
  br i1 %9, label %10, label %11

10:                                               ; preds = %2
  br label %36

11:                                               ; preds = %2
  %12 = load ptr, ptr %3, align 8, !tbaa !12
  %13 = getelementptr inbounds nuw %struct.Vec_Str_t_, ptr %12, i32 0, i32 2
  %14 = load ptr, ptr %13, align 8, !tbaa !23
  %15 = icmp ne ptr %14, null
  br i1 %15, label %16, label %24

16:                                               ; preds = %11
  %17 = load ptr, ptr %3, align 8, !tbaa !12
  %18 = getelementptr inbounds nuw %struct.Vec_Str_t_, ptr %17, i32 0, i32 2
  %19 = load ptr, ptr %18, align 8, !tbaa !23
  %20 = load i32, ptr %4, align 4, !tbaa !7
  %21 = sext i32 %20 to i64
  %22 = mul i64 1, %21
  %23 = call ptr @realloc(ptr noundef %19, i64 noundef %22) #13
  br label %29

24:                                               ; preds = %11
  %25 = load i32, ptr %4, align 4, !tbaa !7
  %26 = sext i32 %25 to i64
  %27 = mul i64 1, %26
  %28 = call noalias ptr @malloc(i64 noundef %27) #14
  br label %29

29:                                               ; preds = %24, %16
  %30 = phi ptr [ %23, %16 ], [ %28, %24 ]
  %31 = load ptr, ptr %3, align 8, !tbaa !12
  %32 = getelementptr inbounds nuw %struct.Vec_Str_t_, ptr %31, i32 0, i32 2
  store ptr %30, ptr %32, align 8, !tbaa !23
  %33 = load i32, ptr %4, align 4, !tbaa !7
  %34 = load ptr, ptr %3, align 8, !tbaa !12
  %35 = getelementptr inbounds nuw %struct.Vec_Str_t_, ptr %34, i32 0, i32 0
  store i32 %33, ptr %35, align 8, !tbaa !22
  br label %36

36:                                               ; preds = %29, %10
  ret void
}

; Function Attrs: inlinehint nounwind uwtable
define internal i32 @Vec_StrSize(ptr noundef %0) #1 {
  %2 = alloca ptr, align 8
  store ptr %0, ptr %2, align 8, !tbaa !12
  %3 = load ptr, ptr %2, align 8, !tbaa !12
  %4 = getelementptr inbounds nuw %struct.Vec_Str_t_, ptr %3, i32 0, i32 1
  %5 = load i32, ptr %4, align 4, !tbaa !18
  ret i32 %5
}

; Function Attrs: inlinehint nounwind uwtable
define internal i32 @Acb_ObjFaninNum(ptr noundef %0, i32 noundef %1) #1 {
  %3 = alloca ptr, align 8
  %4 = alloca i32, align 4
  store ptr %0, ptr %3, align 8, !tbaa !28
  store i32 %1, ptr %4, align 4, !tbaa !7
  %5 = load ptr, ptr %3, align 8, !tbaa !28
  %6 = load i32, ptr %4, align 4, !tbaa !7
  %7 = call ptr @Acb_ObjFanins(ptr noundef %5, i32 noundef %6)
  %8 = getelementptr inbounds i32, ptr %7, i64 0
  %9 = load i32, ptr %8, align 4, !tbaa !7
  ret i32 %9
}

; Function Attrs: inlinehint nounwind uwtable
define internal i64 @Acb_ObjTruth(ptr noundef %0, i32 noundef %1) #1 {
  %3 = alloca ptr, align 8
  %4 = alloca i32, align 4
  store ptr %0, ptr %3, align 8, !tbaa !28
  store i32 %1, ptr %4, align 4, !tbaa !7
  %5 = load ptr, ptr %3, align 8, !tbaa !28
  %6 = getelementptr inbounds nuw %struct.Acb_Ntk_t_, ptr %5, i32 0, i32 20
  %7 = load i32, ptr %4, align 4, !tbaa !7
  %8 = call i64 @Vec_WrdEntry(ptr noundef %6, i32 noundef %7)
  ret i64 %8
}

; Function Attrs: inlinehint nounwind uwtable
define internal ptr @Acb_ObjCnfs(ptr noundef %0, i32 noundef %1) #1 {
  %3 = alloca ptr, align 8
  %4 = alloca i32, align 4
  store ptr %0, ptr %3, align 8, !tbaa !28
  store i32 %1, ptr %4, align 4, !tbaa !7
  %5 = load ptr, ptr %3, align 8, !tbaa !28
  %6 = getelementptr inbounds nuw %struct.Acb_Ntk_t_, ptr %5, i32 0, i32 35
  %7 = load i32, ptr %4, align 4, !tbaa !7
  %8 = call ptr @Vec_WecEntry(ptr noundef %6, i32 noundef %7)
  ret ptr %8
}

; Function Attrs: nounwind uwtable
define void @Acb_DeriveCnfForWindowOne(ptr noundef %0, i32 noundef %1) #0 {
  %3 = alloca ptr, align 8
  %4 = alloca i32, align 4
  %5 = alloca ptr, align 8
  %6 = alloca ptr, align 8
  store ptr %0, ptr %3, align 8, !tbaa !28
  store i32 %1, ptr %4, align 4, !tbaa !7
  call void @llvm.lifetime.start.p0(i64 8, ptr %5) #12
  %7 = load ptr, ptr %3, align 8, !tbaa !28
  %8 = getelementptr inbounds nuw %struct.Acb_Ntk_t_, ptr %7, i32 0, i32 35
  store ptr %8, ptr %5, align 8, !tbaa !30
  call void @llvm.lifetime.start.p0(i64 8, ptr %6) #12
  %9 = load ptr, ptr %3, align 8, !tbaa !28
  %10 = load i32, ptr %4, align 4, !tbaa !7
  %11 = call ptr @Acb_ObjCnfs(ptr noundef %9, i32 noundef %10)
  store ptr %11, ptr %6, align 8, !tbaa !12
  %12 = load ptr, ptr %3, align 8, !tbaa !28
  %13 = load i32, ptr %4, align 4, !tbaa !7
  %14 = call i64 @Acb_ObjTruth(ptr noundef %12, i32 noundef %13)
  %15 = load ptr, ptr %3, align 8, !tbaa !28
  %16 = load i32, ptr %4, align 4, !tbaa !7
  %17 = call i32 @Acb_ObjFaninNum(ptr noundef %15, i32 noundef %16)
  %18 = load ptr, ptr %3, align 8, !tbaa !28
  %19 = getelementptr inbounds nuw %struct.Acb_Ntk_t_, ptr %18, i32 0, i32 39
  %20 = load ptr, ptr %3, align 8, !tbaa !28
  %21 = getelementptr inbounds nuw %struct.Acb_Ntk_t_, ptr %20, i32 0, i32 36
  %22 = call i32 @Acb_DeriveCnfFromTruth(i64 noundef %14, i32 noundef %17, ptr noundef %19, ptr noundef %21)
  %23 = load ptr, ptr %6, align 8, !tbaa !12
  %24 = load ptr, ptr %3, align 8, !tbaa !28
  %25 = getelementptr inbounds nuw %struct.Acb_Ntk_t_, ptr %24, i32 0, i32 36
  %26 = call i32 @Vec_StrSize(ptr noundef %25)
  call void @Vec_StrGrow(ptr noundef %23, i32 noundef %26)
  %27 = load ptr, ptr %6, align 8, !tbaa !12
  %28 = call ptr @Vec_StrArray(ptr noundef %27)
  %29 = load ptr, ptr %3, align 8, !tbaa !28
  %30 = getelementptr inbounds nuw %struct.Acb_Ntk_t_, ptr %29, i32 0, i32 36
  %31 = call ptr @Vec_StrArray(ptr noundef %30)
  %32 = load ptr, ptr %3, align 8, !tbaa !28
  %33 = getelementptr inbounds nuw %struct.Acb_Ntk_t_, ptr %32, i32 0, i32 36
  %34 = call i32 @Vec_StrSize(ptr noundef %33)
  %35 = sext i32 %34 to i64
  call void @llvm.memcpy.p0.p0.i64(ptr align 1 %28, ptr align 1 %31, i64 %35, i1 false)
  %36 = load ptr, ptr %3, align 8, !tbaa !28
  %37 = getelementptr inbounds nuw %struct.Acb_Ntk_t_, ptr %36, i32 0, i32 36
  %38 = call i32 @Vec_StrSize(ptr noundef %37)
  %39 = load ptr, ptr %6, align 8, !tbaa !12
  %40 = getelementptr inbounds nuw %struct.Vec_Str_t_, ptr %39, i32 0, i32 1
  store i32 %38, ptr %40, align 4, !tbaa !18
  call void @llvm.lifetime.end.p0(i64 8, ptr %6) #12
  call void @llvm.lifetime.end.p0(i64 8, ptr %5) #12
  ret void
}