; Function Attrs: nounwind uwtable
define void @Acb_DeriveCnfForWindowOne(ptr noundef %0, i32 noundef %1) local_unnamed_addr #0 {
  %3 = getelementptr i8, ptr %0, i64 456
  %.val = load ptr, ptr %3, align 8, !tbaa !24
  %4 = sext i32 %1 to i64
  %5 = getelementptr inbounds %struct.Vec_Int_t_, ptr %.val, i64 %4
  %6 = getelementptr i8, ptr %0, i64 216
  %.val15 = load ptr, ptr %6, align 8, !tbaa !27
  %7 = getelementptr inbounds i64, ptr %.val15, i64 %4
  %8 = load i64, ptr %7, align 8, !tbaa !3
  %9 = getelementptr i8, ptr %0, i64 136
  %.val16 = load ptr, ptr %9, align 8, !tbaa !18
  %10 = getelementptr i8, ptr %0, i64 152
  %.val17 = load ptr, ptr %10, align 8, !tbaa !18
  %11 = getelementptr inbounds i32, ptr %.val16, i64 %4
  %12 = load i32, ptr %11, align 4, !tbaa !19
  %13 = sext i32 %12 to i64
  %14 = getelementptr inbounds i32, ptr %.val17, i64 %13
  %15 = load i32, ptr %14, align 4, !tbaa !19
  %16 = getelementptr inbounds nuw i8, ptr %0, i64 504
  %17 = getelementptr inbounds nuw i8, ptr %0, i64 464
  %18 = tail call i32 @Acb_DeriveCnfFromTruth(i64 noundef %8, i32 noundef %15, ptr noundef nonnull %16, ptr noundef nonnull %17)
  %19 = getelementptr i8, ptr %0, i64 468
  %.val18 = load i32, ptr %19, align 4, !tbaa !7
  %20 = load i32, ptr %5, align 8, !tbaa !12
  %.not.i = icmp slt i32 %20, %.val18
  %21 = getelementptr i8, ptr %5, i64 8
  %22 = load ptr, ptr %21, align 8, !tbaa !13
  br i1 %.not.i, label %23, label %Vec_StrGrow.exit

23:                                               ; preds = %2
  %.not9.i = icmp eq ptr %22, null
  %24 = sext i32 %.val18 to i64
  br i1 %.not9.i, label %27, label %25

25:                                               ; preds = %23
  %26 = tail call ptr @realloc(ptr noundef nonnull %22, i64 noundef %24) #23
  %.val19.pre.pre = load i32, ptr %19, align 4, !tbaa !7
  br label %29

27:                                               ; preds = %23
  %28 = tail call noalias ptr @malloc(i64 noundef %24) #24
  br label %29

29:                                               ; preds = %27, %25
  %.val19.pre = phi i32 [ %.val19.pre.pre, %25 ], [ %.val18, %27 ]
  %30 = phi ptr [ %26, %25 ], [ %28, %27 ]
  store ptr %30, ptr %21, align 8, !tbaa !13
  store i32 %.val18, ptr %5, align 8, !tbaa !12
  br label %Vec_StrGrow.exit

Vec_StrGrow.exit:                                 ; preds = %2, %29
  %.val19 = phi i32 [ %.val19.pre, %29 ], [ %.val18, %2 ]
  %.val21 = phi ptr [ %30, %29 ], [ %22, %2 ]
  %31 = getelementptr i8, ptr %0, i64 472
  %.val22 = load ptr, ptr %31, align 8, !tbaa !13
  %32 = sext i32 %.val19 to i64
  tail call void @llvm.memcpy.p0.p0.i64(ptr align 1 %.val21, ptr align 1 %.val22, i64 %32, i1 false)
  %.val20 = load i32, ptr %19, align 4, !tbaa !7
  %33 = getelementptr inbounds nuw i8, ptr %5, i64 4
  store i32 %.val20, ptr %33, align 4, !tbaa !7
  ret void
}